; Function Attrs: mustprogress uwtable
define internal fastcc void @_ZN12_GLOBAL__N_116GitRegistryEntryC2EN5vcpkg10StringViewERKNS_11GitRegistryEbOSt6vectorINS1_17GitVersionDbEntryESaIS7_EE(ptr noundef nonnull align 8 dereferenceable(104) %0, ptr %1, i64 %2, ptr noundef nonnull align 8 dereferenceable(176) %3, i1 noundef zeroext %4, ptr nocapture noundef nonnull align 8 dereferenceable(24) %5) unnamed_addr #2 align 2 personality ptr @__gxx_personality_v0 {
  %7 = alloca %"class.std::allocator", align 1
  store ptr getelementptr inbounds ({ [6 x ptr] }, ptr @_ZTVN12_GLOBAL__N_116GitRegistryEntryE, i64 0, i32 0, i64 2), ptr %0, align 8
  %8 = getelementptr inbounds i8, ptr %0, i64 8
  call void @_ZNSaIcEC1Ev(ptr noundef nonnull align 1 dereferenceable(1) %7) #26
  invoke void @_ZNSt7__cxx1112basic_stringIcSt11char_traitsIcESaIcEEC1EPKcmRKS3_(ptr noundef nonnull align 8 dereferenceable(32) %8, ptr noundef %1, i64 noundef %2, ptr noundef nonnull align 1 dereferenceable(1) %7)
          to label %9 unwind label %16

9:                                                ; preds = %6
  %10 = zext i1 %4 to i8
  call void @_ZNSaIcED1Ev(ptr noundef nonnull align 1 dereferenceable(1) %7) #26
  %11 = getelementptr inbounds i8, ptr %0, i64 40
  store ptr %3, ptr %11, align 8
  %12 = getelementptr inbounds i8, ptr %0, i64 48
  store i8 %10, ptr %12, align 8
  %13 = getelementptr inbounds i8, ptr %0, i64 56
  call void @llvm.memset.p0.i64(ptr noundef nonnull align 8 dereferenceable(48) %13, i8 0, i64 48, i1 false)
  invoke fastcc void @_ZN12_GLOBAL__N_134PortVersionsGitTreesStructOfArrays6assignEOSt6vectorIN5vcpkg17GitVersionDbEntryESaIS3_EE(ptr noundef nonnull align 8 dereferenceable(48) %13, ptr noundef nonnull align 8 dereferenceable(24) %5)
          to label %_ZN12_GLOBAL__N_134PortVersionsGitTreesStructOfArraysC2EOSt6vectorIN5vcpkg17GitVersionDbEntryESaIS3_EE.exit unwind label %.body

.body:                                            ; preds = %9
  %14 = landingpad { ptr, i32 }
          cleanup
  %15 = getelementptr inbounds i8, ptr %0, i64 80
  call void @_ZNSt6vectorINSt7__cxx1112basic_stringIcSt11char_traitsIcESaIcEEESaIS5_EED2Ev(ptr noundef nonnull align 8 dereferenceable(24) %15) #26
  call void @_ZNSt6vectorIN5vcpkg7VersionESaIS1_EED2Ev(ptr noundef nonnull align 8 dereferenceable(24) %13) #26
  call void @_ZNSt7__cxx1112basic_stringIcSt11char_traitsIcESaIcEED1Ev(ptr noundef nonnull align 8 dereferenceable(32) %8) #26
  br label %18

_ZN12_GLOBAL__N_134PortVersionsGitTreesStructOfArraysC2EOSt6vectorIN5vcpkg17GitVersionDbEntryESaIS3_EE.exit: ; preds = %9
  ret void

16:                                               ; preds = %6
  %17 = landingpad { ptr, i32 }
          cleanup
  call void @_ZNSaIcED1Ev(ptr noundef nonnull align 1 dereferenceable(1) %7) #26
  br label %18

18:                                               ; preds = %.body, %16
  %.pn = phi { ptr, i32 } [ %14, %.body ], [ %17, %16 ]
  resume { ptr, i32 } %.pn
}